target datalayout = "e-m:e-p270:32:32-p271:32:32-p272:64:64-i64:64-i128:128-f80:128-n8:16:32:64-S128"
target triple = "x86_64-unknown-linux-gnu"

; Function Attrs: mustprogress nounwind uwtable
define hidden noundef i32 @_ZN4llvh19ConvertUTF32toUTF16EPPKjS1_PPtS3_NS_15ConversionFlagsE(ptr noundef %sourceStart, ptr noundef %sourceEnd, ptr noundef %targetStart, ptr noundef %targetEnd, i32 noundef %flags) #0 {
entry:
  %sourceStart.addr = alloca ptr, align 8
  %sourceEnd.addr = alloca ptr, align 8
  %targetStart.addr = alloca ptr, align 8
  %targetEnd.addr = alloca ptr, align 8
  %flags.addr = alloca i32, align 4
  %result = alloca i32, align 4
  %source = alloca ptr, align 8
  %target = alloca ptr, align 8
  %ch = alloca i32, align 4
  store ptr %sourceStart, ptr %sourceStart.addr, align 8
  store ptr %sourceEnd, ptr %sourceEnd.addr, align 8
  store ptr %targetStart, ptr %targetStart.addr, align 8
  store ptr %targetEnd, ptr %targetEnd.addr, align 8
  store i32 %flags, ptr %flags.addr, align 4
  store i32 0, ptr %result, align 4
  %0 = load ptr, ptr %sourceStart.addr, align 8
  %1 = load ptr, ptr %0, align 8
  store ptr %1, ptr %source, align 8
  %2 = load ptr, ptr %targetStart.addr, align 8
  %3 = load ptr, ptr %2, align 8
  store ptr %3, ptr %target, align 8
  br label %while.cond

while.cond:                                       ; preds = %if.end34, %entry
  %4 = load ptr, ptr %source, align 8
  %5 = load ptr, ptr %sourceEnd.addr, align 8
  %cmp = icmp ult ptr %4, %5
  br i1 %cmp, label %while.body, label %while.end

while.body:                                       ; preds = %while.cond
  %6 = load ptr, ptr %target, align 8
  %7 = load ptr, ptr %targetEnd.addr, align 8
  %cmp1 = icmp uge ptr %6, %7
  br i1 %cmp1, label %if.then, label %if.end

if.then:                                          ; preds = %while.body
  store i32 2, ptr %result, align 4
  br label %while.end

if.end:                                           ; preds = %while.body
  %8 = load ptr, ptr %source, align 8
  %incdec.ptr = getelementptr inbounds i32, ptr %8, i32 1
  store ptr %incdec.ptr, ptr %source, align 8
  %9 = load i32, ptr %8, align 4
  store i32 %9, ptr %ch, align 4
  %10 = load i32, ptr %ch, align 4
  %cmp2 = icmp ule i32 %10, 65535
  br i1 %cmp2, label %if.then3, label %if.else15

if.then3:                                         ; preds = %if.end
  %11 = load i32, ptr %ch, align 4
  %cmp4 = icmp uge i32 %11, 55296
  br i1 %cmp4, label %land.lhs.true, label %if.else12

land.lhs.true:                                    ; preds = %if.then3
  %12 = load i32, ptr %ch, align 4
  %cmp5 = icmp ule i32 %12, 57343
  br i1 %cmp5, label %if.then6, label %if.else12

if.then6:                                         ; preds = %land.lhs.true
  %13 = load i32, ptr %flags.addr, align 4
  %cmp7 = icmp eq i32 %13, 0
  br i1 %cmp7, label %if.then8, label %if.else

if.then8:                                         ; preds = %if.then6
  %14 = load ptr, ptr %source, align 8
  %incdec.ptr9 = getelementptr inbounds i32, ptr %14, i32 -1
  store ptr %incdec.ptr9, ptr %source, align 8
  store i32 3, ptr %result, align 4
  br label %while.end

if.else:                                          ; preds = %if.then6
  %15 = load ptr, ptr %target, align 8
  %incdec.ptr10 = getelementptr inbounds i16, ptr %15, i32 1
  store ptr %incdec.ptr10, ptr %target, align 8
  store i16 -3, ptr %15, align 2
  br label %if.end11

if.end11:                                         ; preds = %if.else
  br label %if.end14

if.else12:                                        ; preds = %land.lhs.true, %if.then3
  %16 = load i32, ptr %ch, align 4
  %conv = trunc i32 %16 to i16
  %17 = load ptr, ptr %target, align 8
  %incdec.ptr13 = getelementptr inbounds i16, ptr %17, i32 1
  store ptr %incdec.ptr13, ptr %target, align 8
  store i16 %conv, ptr %17, align 2
  br label %if.end14

if.end14:                                         ; preds = %if.else12, %if.end11
  br label %if.end34

if.else15:                                        ; preds = %if.end
  %18 = load i32, ptr %ch, align 4
  %cmp16 = icmp ugt i32 %18, 1114111
  br i1 %cmp16, label %if.then17, label %if.else23

if.then17:                                        ; preds = %if.else15
  %19 = load i32, ptr %flags.addr, align 4
  %cmp18 = icmp eq i32 %19, 0
  br i1 %cmp18, label %if.then19, label %if.else20

if.then19:                                        ; preds = %if.then17
  store i32 3, ptr %result, align 4
  br label %if.end22

if.else20:                                        ; preds = %if.then17
  %20 = load ptr, ptr %target, align 8
  %incdec.ptr21 = getelementptr inbounds i16, ptr %20, i32 1
  store ptr %incdec.ptr21, ptr %target, align 8
  store i16 -3, ptr %20, align 2
  br label %if.end22

if.end22:                                         ; preds = %if.else20, %if.then19
  br label %if.end33

if.else23:                                        ; preds = %if.else15
  %21 = load ptr, ptr %target, align 8
  %add.ptr = getelementptr inbounds i16, ptr %21, i64 1
  %22 = load ptr, ptr %targetEnd.addr, align 8
  %cmp24 = icmp uge ptr %add.ptr, %22
  br i1 %cmp24, label %if.then25, label %if.end27

if.then25:                                        ; preds = %if.else23
  %23 = load ptr, ptr %source, align 8
  %incdec.ptr26 = getelementptr inbounds i32, ptr %23, i32 -1
  store ptr %incdec.ptr26, ptr %source, align 8
  store i32 2, ptr %result, align 4
  br label %while.end

if.end27:                                         ; preds = %if.else23
  %24 = load i32, ptr %ch, align 4
  %sub = sub i32 %24, 65536
  store i32 %sub, ptr %ch, align 4
  %25 = load i32, ptr %ch, align 4
  %shr = lshr i32 %25, 10
  %add = add i32 %shr, 55296
  %conv28 = trunc i32 %add to i16
  %26 = load ptr, ptr %target, align 8
  %incdec.ptr29 = getelementptr inbounds i16, ptr %26, i32 1
  store ptr %incdec.ptr29, ptr %target, align 8
  store i16 %conv28, ptr %26, align 2
  %27 = load i32, ptr %ch, align 4
  %and = and i32 %27, 1023
  %add30 = add i32 %and, 56320
  %conv31 = trunc i32 %add30 to i16
  %28 = load ptr, ptr %target, align 8
  %incdec.ptr32 = getelementptr inbounds i16, ptr %28, i32 1
  store ptr %incdec.ptr32, ptr %target, align 8
  store i16 %conv31, ptr %28, align 2
  br label %if.end33

if.end33:                                         ; preds = %if.end27, %if.end22
  br label %if.end34

if.end34:                                         ; preds = %if.end33, %if.end14
  br label %while.cond, !llvm.loop !4

while.end:                                        ; preds = %if.then25, %if.then8, %if.then, %while.cond
  %29 = load ptr, ptr %source, align 8
  %30 = load ptr, ptr %sourceStart.addr, align 8
  store ptr %29, ptr %30, align 8
  %31 = load ptr, ptr %target, align 8
  %32 = load ptr, ptr %targetStart.addr, align 8
  store ptr %31, ptr %32, align 8
  %33 = load i32, ptr %result, align 4
  ret i32 %33
}