; Function Attrs: mustprogress nofree norecurse nosync nounwind memory(readwrite, inaccessiblemem: none) uwtable
define hidden noundef range(i32 0, 4) i32 @_ZN4llvh19ConvertUTF32toUTF16EPPKjS1_PPtS3_NS_15ConversionFlagsE(ptr noundef captures(none) %sourceStart, ptr noundef readnone %sourceEnd, ptr noundef captures(none) %targetStart, ptr noundef readnone %targetEnd, i32 noundef %flags) local_unnamed_addr #0 {
entry:
  %0 = load ptr, ptr %sourceStart, align 8
  %1 = load ptr, ptr %targetStart, align 8
  %cmp23 = icmp ult ptr %0, %sourceEnd
  br i1 %cmp23, label %while.body.lr.ph, label %while.end

while.body.lr.ph:                                 ; preds = %entry
  %cmp18 = icmp eq i32 %flags, 0
  br i1 %cmp18, label %while.body.us.us, label %while.body

while.body.us.us:                                 ; preds = %while.body.lr.ph, %if.end34.us.us
  %target.026.us.us = phi ptr [ %target.1.us.us, %if.end34.us.us ], [ %1, %while.body.lr.ph ]
  %source.025.us.us = phi ptr [ %incdec.ptr.us.us, %if.end34.us.us ], [ %0, %while.body.lr.ph ]
  %result.024.us.us = phi i32 [ %result.2.us.us, %if.end34.us.us ], [ 0, %while.body.lr.ph ]
  %cmp1.not.us.us = icmp ult ptr %target.026.us.us, %targetEnd
  br i1 %cmp1.not.us.us, label %if.end.us.us, label %while.end

if.end.us.us:                                     ; preds = %while.body.us.us
  %incdec.ptr.us.us = getelementptr inbounds nuw i8, ptr %source.025.us.us, i64 4
  %2 = load i32, ptr %source.025.us.us, align 4
  %cmp2.us.us = icmp ult i32 %2, 65536
  br i1 %cmp2.us.us, label %if.then3.us.us, label %if.else15.us.us

if.else15.us.us:                                  ; preds = %if.end.us.us
  %cmp16.us.us = icmp ugt i32 %2, 1114111
  br i1 %cmp16.us.us, label %if.end34.us.us, label %if.else23.us.us

if.else23.us.us:                                  ; preds = %if.else15.us.us
  %add.ptr.us.us = getelementptr inbounds nuw i8, ptr %target.026.us.us, i64 2
  %cmp24.not.us.us = icmp ult ptr %add.ptr.us.us, %targetEnd
  br i1 %cmp24.not.us.us, label %if.end27.us.us, label %while.end

if.end27.us.us:                                   ; preds = %if.else23.us.us
  %sub.us.us = add nuw nsw i32 %2, 67043328
  %shr.us.us = lshr i32 %sub.us.us, 10
  %3 = trunc i32 %shr.us.us to i16
  %conv28.us.us = add nuw nsw i16 %3, -10240
  store i16 %conv28.us.us, ptr %target.026.us.us, align 2
  %4 = trunc i32 %2 to i16
  %5 = and i16 %4, 1023
  %conv31.us.us = or disjoint i16 %5, -9216
  %incdec.ptr32.us.us = getelementptr inbounds nuw i8, ptr %target.026.us.us, i64 4
  store i16 %conv31.us.us, ptr %add.ptr.us.us, align 2
  br label %if.end34.us.us

if.then3.us.us:                                   ; preds = %if.end.us.us
  %6 = and i32 %2, 63488
  %or.cond.us.us = icmp eq i32 %6, 55296
  br i1 %or.cond.us.us, label %while.end, label %if.else12.us.us

if.else12.us.us:                                  ; preds = %if.then3.us.us
  %conv.us.us = trunc nuw i32 %2 to i16
  %incdec.ptr13.us.us = getelementptr inbounds nuw i8, ptr %target.026.us.us, i64 2
  store i16 %conv.us.us, ptr %target.026.us.us, align 2
  br label %if.end34.us.us

if.end34.us.us:                                   ; preds = %if.else15.us.us, %if.else12.us.us, %if.end27.us.us
  %result.2.us.us = phi i32 [ %result.024.us.us, %if.else12.us.us ], [ %result.024.us.us, %if.end27.us.us ], [ 3, %if.else15.us.us ]
  %target.1.us.us = phi ptr [ %incdec.ptr13.us.us, %if.else12.us.us ], [ %incdec.ptr32.us.us, %if.end27.us.us ], [ %target.026.us.us, %if.else15.us.us ]
  %cmp.us.us = icmp ult ptr %incdec.ptr.us.us, %sourceEnd
  br i1 %cmp.us.us, label %while.body.us.us, label %while.end, !llvm.loop !4

while.body:                                       ; preds = %while.body.lr.ph, %if.end34
  %target.026 = phi ptr [ %target.1, %if.end34 ], [ %1, %while.body.lr.ph ]
  %source.025 = phi ptr [ %incdec.ptr, %if.end34 ], [ %0, %while.body.lr.ph ]
  %cmp1.not = icmp ult ptr %target.026, %targetEnd
  br i1 %cmp1.not, label %if.end, label %while.end

if.end:                                           ; preds = %while.body
  %incdec.ptr = getelementptr inbounds nuw i8, ptr %source.025, i64 4
  %7 = load i32, ptr %source.025, align 4
  %cmp2 = icmp ult i32 %7, 65536
  br i1 %cmp2, label %if.then3, label %if.else15

if.then3:                                         ; preds = %if.end
  %8 = and i32 %7, 63488
  %or.cond = icmp eq i32 %8, 55296
  br i1 %or.cond, label %if.then6, label %if.else12

if.then6:                                         ; preds = %if.then3
  %incdec.ptr10 = getelementptr inbounds nuw i8, ptr %target.026, i64 2
  store i16 -3, ptr %target.026, align 2
  br label %if.end34

if.else12:                                        ; preds = %if.then3
  %conv = trunc nuw i32 %7 to i16
  %incdec.ptr13 = getelementptr inbounds nuw i8, ptr %target.026, i64 2
  store i16 %conv, ptr %target.026, align 2
  br label %if.end34

if.else15:                                        ; preds = %if.end
  %cmp16 = icmp ugt i32 %7, 1114111
  %incdec.ptr21 = getelementptr inbounds nuw i8, ptr %target.026, i64 2
  br i1 %cmp16, label %if.then17, label %if.else23

if.then17:                                        ; preds = %if.else15
  store i16 -3, ptr %target.026, align 2
  br label %if.end34

if.else23:                                        ; preds = %if.else15
  %cmp24.not = icmp ult ptr %incdec.ptr21, %targetEnd
  br i1 %cmp24.not, label %if.end27, label %while.end

if.end27:                                         ; preds = %if.else23
  %sub = add nuw nsw i32 %7, 67043328
  %shr = lshr i32 %sub, 10
  %9 = trunc i32 %shr to i16
  %conv28 = add nuw nsw i16 %9, -10240
  store i16 %conv28, ptr %target.026, align 2
  %10 = trunc i32 %7 to i16
  %11 = and i16 %10, 1023
  %conv31 = or disjoint i16 %11, -9216
  %incdec.ptr32 = getelementptr inbounds nuw i8, ptr %target.026, i64 4
  store i16 %conv31, ptr %incdec.ptr21, align 2
  br label %if.end34

if.end34:                                         ; preds = %if.end27, %if.then17, %if.then6, %if.else12
  %target.1 = phi ptr [ %incdec.ptr10, %if.then6 ], [ %incdec.ptr13, %if.else12 ], [ %incdec.ptr21, %if.then17 ], [ %incdec.ptr32, %if.end27 ]
  %cmp = icmp ult ptr %incdec.ptr, %sourceEnd
  br i1 %cmp, label %while.body, label %while.end, !llvm.loop !4

while.end:                                        ; preds = %if.end34, %while.body, %if.else23, %if.end34.us.us, %while.body.us.us, %if.then3.us.us, %if.else23.us.us, %entry
  %source.0.lcssa = phi ptr [ %0, %entry ], [ %source.025.us.us, %if.else23.us.us ], [ %source.025.us.us, %if.then3.us.us ], [ %source.025.us.us, %while.body.us.us ], [ %incdec.ptr.us.us, %if.end34.us.us ], [ %source.025, %if.else23 ], [ %source.025, %while.body ], [ %incdec.ptr, %if.end34 ]
  %target.0.lcssa = phi ptr [ %1, %entry ], [ %target.026.us.us, %if.else23.us.us ], [ %target.026.us.us, %if.then3.us.us ], [ %target.026.us.us, %while.body.us.us ], [ %target.1.us.us, %if.end34.us.us ], [ %target.026, %if.else23 ], [ %target.026, %while.body ], [ %target.1, %if.end34 ]
  %result.1 = phi i32 [ 0, %entry ], [ 2, %if.else23.us.us ], [ 3, %if.then3.us.us ], [ 2, %while.body.us.us ], [ %result.2.us.us, %if.end34.us.us ], [ 2, %if.else23 ], [ 2, %while.body ], [ 0, %if.end34 ]
  store ptr %source.0.lcssa, ptr %sourceStart, align 8
  store ptr %target.0.lcssa, ptr %targetStart, align 8
  ret i32 %result.1
}